; Function Attrs: mustprogress uwtable
define dso_local void @_ZN3net14QuicSpdyStream14CloseWriteSideEv(ptr noundef nonnull align 8 dereferenceable(664) %this) unnamed_addr #0 align 2 {
entry:
  %fin_received_.i = getelementptr inbounds i8, ptr %this, i64 260
  %0 = load i8, ptr %fin_received_.i, align 4
  %1 = and i8 %0, 1
  %tobool.i.not = icmp eq i8 %1, 0
  br i1 %tobool.i.not, label %land.lhs.true, label %if.end

land.lhs.true:                                    ; preds = %entry
  %rst_received_.i = getelementptr inbounds i8, ptr %this, i64 262
  %2 = load i8, ptr %rst_received_.i, align 2
  %3 = and i8 %2, 1
  %tobool.i1.not = icmp eq i8 %3, 0
  br i1 %tobool.i1.not, label %land.lhs.true3, label %if.end

land.lhs.true3:                                   ; preds = %land.lhs.true
  %ignore_read_data_.i = getelementptr inbounds i8, ptr %this, i64 208
  %4 = load i8, ptr %ignore_read_data_.i, align 8
  %5 = and i8 %4, 1
  %tobool.i2.not = icmp eq i8 %5, 0
  br i1 %tobool.i2.not, label %if.end, label %land.lhs.true6

land.lhs.true6:                                   ; preds = %land.lhs.true3
  %rst_sent_.i = getelementptr inbounds i8, ptr %this, i64 261
  %6 = load i8, ptr %rst_sent_.i, align 1
  %7 = and i8 %6, 1
  %tobool.i3.not = icmp eq i8 %7, 0
  br i1 %tobool.i3.not, label %if.then, label %if.end

if.then:                                          ; preds = %land.lhs.true6
  %vtable = load ptr, ptr %this, align 8
  %vfn = getelementptr inbounds i8, ptr %vtable, i64 64
  %8 = load ptr, ptr %vfn, align 8
  tail call void %8(ptr noundef nonnull align 8 dereferenceable(377) %this, i32 noundef 0)
  br label %if.end

if.end:                                           ; preds = %if.then, %land.lhs.true6, %land.lhs.true3, %land.lhs.true, %entry
  tail call void @_ZN3net18ReliableQuicStream14CloseWriteSideEv(ptr noundef nonnull align 8 dereferenceable(377) %this)
  ret void
}